; Function Attrs: mustprogress uwtable
define dso_local void @_ZN17cmOutputConverter28ComputeRelativePathTopBinaryEv(ptr noundef nonnull align 8 dereferenceable(108) %0) local_unnamed_addr #3 align 2 {
  %2 = alloca %class.cmStateSnapshot, align 8
  %3 = alloca %class.cmStateSnapshot, align 8
  %4 = alloca %class.cmStateDirectory, align 8
  %5 = alloca %class.cmStateDirectory, align 8
  %6 = alloca %class.cmStateSnapshot, align 8
  %7 = alloca %class.cmStateDirectory, align 8
  %8 = getelementptr inbounds i8, ptr %0, i64 8
  call void @llvm.memcpy.p0.p0.i64(ptr noundef nonnull align 8 dereferenceable(24) %2, ptr noundef nonnull align 8 dereferenceable(24) %8, i64 24, i1 false)
  call void @_ZNK15cmStateSnapshot29GetBuildsystemDirectoryParentEv(ptr dead_on_unwind nonnull writable sret(%class.cmStateSnapshot) align 8 %3, ptr noundef nonnull align 8 dereferenceable(24) %2)
  %9 = call noundef zeroext i1 @_ZNK15cmStateSnapshot7IsValidEv(ptr noundef nonnull align 8 dereferenceable(24) %3)
  br i1 %9, label %.lr.ph, label %._crit_edge

.lr.ph:                                           ; preds = %1, %14
  call void @_ZNK15cmStateSnapshot12GetDirectoryEv(ptr dead_on_unwind nonnull writable sret(%class.cmStateDirectory) align 8 %4, ptr noundef nonnull align 8 dereferenceable(24) %2)
  %10 = call noundef nonnull align 8 dereferenceable(32) ptr @_ZNK16cmStateDirectory16GetCurrentBinaryB5cxx11Ev(ptr noundef nonnull align 8 dereferenceable(40) %4)
  call void @_ZNK15cmStateSnapshot12GetDirectoryEv(ptr dead_on_unwind nonnull writable sret(%class.cmStateDirectory) align 8 %5, ptr noundef nonnull align 8 dereferenceable(24) %3)
  %11 = call noundef nonnull align 8 dereferenceable(32) ptr @_ZNK16cmStateDirectory16GetCurrentBinaryB5cxx11Ev(ptr noundef nonnull align 8 dereferenceable(40) %5)
  %12 = call noundef zeroext i1 @_ZN5cmsys11SystemTools14IsSubDirectoryERKNSt7__cxx1112basic_stringIcSt11char_traitsIcESaIcEEES8_(ptr noundef nonnull align 8 dereferenceable(32) %10, ptr noundef nonnull align 8 dereferenceable(32) %11)
  br i1 %12, label %13, label %14

13:                                               ; preds = %.lr.ph
  call void @llvm.memcpy.p0.p0.i64(ptr noundef nonnull align 8 dereferenceable(24) %2, ptr noundef nonnull align 8 dereferenceable(24) %3, i64 24, i1 false)
  br label %14

14:                                               ; preds = %.lr.ph, %13
  call void @_ZNK15cmStateSnapshot29GetBuildsystemDirectoryParentEv(ptr dead_on_unwind nonnull writable sret(%class.cmStateSnapshot) align 8 %6, ptr noundef nonnull align 8 dereferenceable(24) %3)
  call void @llvm.memcpy.p0.p0.i64(ptr noundef nonnull align 8 dereferenceable(24) %3, ptr noundef nonnull align 8 dereferenceable(24) %6, i64 24, i1 false)
  %15 = call noundef zeroext i1 @_ZNK15cmStateSnapshot7IsValidEv(ptr noundef nonnull align 8 dereferenceable(24) %3)
  br i1 %15, label %.lr.ph, label %._crit_edge, !llvm.loop !7

._crit_edge:                                      ; preds = %14, %1
  call void @_ZNK15cmStateSnapshot12GetDirectoryEv(ptr dead_on_unwind nonnull writable sret(%class.cmStateDirectory) align 8 %7, ptr noundef nonnull align 8 dereferenceable(24) %2)
  %16 = call noundef nonnull align 8 dereferenceable(32) ptr @_ZNK16cmStateDirectory16GetCurrentBinaryB5cxx11Ev(ptr noundef nonnull align 8 dereferenceable(40) %7)
  %17 = getelementptr inbounds i8, ptr %0, i64 72
  %18 = call noundef nonnull align 8 dereferenceable(32) ptr @_ZNSt7__cxx1112basic_stringIcSt11char_traitsIcESaIcEEaSERKS4_(ptr noundef nonnull align 8 dereferenceable(32) %17, ptr noundef nonnull align 8 dereferenceable(32) %16)
  ret void
}